; Function Attrs: mustprogress nounwind uwtable
define dso_local void @_ZN22btGImpactMeshShapePartD2Ev(ptr noundef nonnull align 8 dereferenceable(280) initializes((0, 8)) %0) unnamed_addr #1 align 2 personality ptr @__gxx_personality_v0 {
  store ptr getelementptr inbounds nuw inrange(-16, 296) (i8, ptr @_ZTV23btGImpactShapeInterface, i64 16), ptr %0, align 8, !tbaa !30
  %2 = getelementptr inbounds nuw i8, ptr %0, i64 112
  %3 = load ptr, ptr %2, align 8, !tbaa !13
  %.not.i.i.i.i.i.i = icmp eq ptr %3, null
  br i1 %.not.i.i.i.i.i.i, label %_ZN23btGImpactShapeInterfaceD2Ev.exit, label %4

4:                                                ; preds = %1
  %5 = getelementptr inbounds nuw i8, ptr %0, i64 120
  %6 = load i8, ptr %5, align 8, !tbaa !4, !range !44, !noundef !45
  %7 = trunc nuw i8 %6 to i1
  br i1 %7, label %8, label %_ZN23btGImpactShapeInterfaceD2Ev.exit

8:                                                ; preds = %4
  invoke void @_Z21btAlignedFreeInternalPv(ptr noundef nonnull %3)
          to label %_ZN23btGImpactShapeInterfaceD2Ev.exit unwind label %9

9:                                                ; preds = %8
  %10 = landingpad { ptr, i32 }
          catch ptr null
  %11 = extractvalue { ptr, i32 } %10, 0
  tail call void @__clang_call_terminate(ptr %11) #19
  unreachable

_ZN23btGImpactShapeInterfaceD2Ev.exit:            ; preds = %1, %4, %8
  %12 = getelementptr inbounds nuw i8, ptr %0, i64 100
  %13 = getelementptr inbounds nuw i8, ptr %0, i64 120
  store i8 1, ptr %13, align 8, !tbaa !4
  store ptr null, ptr %2, align 8, !tbaa !13
  store i32 0, ptr %12, align 4, !tbaa !14
  %14 = getelementptr inbounds nuw i8, ptr %0, i64 104
  store i32 0, ptr %14, align 8, !tbaa !15
  tail call void @_ZN14btConcaveShapeD2Ev(ptr noundef nonnull align 8 dereferenceable(184) %0) #20
  ret void
}